target datalayout = "e-m:e-p270:32:32-p271:32:32-p272:64:64-i64:64-i128:128-f80:128-n8:16:32:64-S128"
target triple = "x86_64-pc-linux-gnu"

%class.ZRelocateQueue = type { %class.ZConditionLock, %class.GrowableArrayCHeap, i32, i32, i8, i8, i32 }
%class.ZConditionLock = type { %class.PlatformMonitor }
%class.PlatformMonitor = type { %class.PlatformMutex, %union.pthread_cond_t }
%class.PlatformMutex = type { %union.pthread_mutex_t }
%union.pthread_mutex_t = type { %struct.__pthread_mutex_s }
%struct.__pthread_mutex_s = type { i32, i32, i32, i32, i32, i16, i16, %struct.__pthread_internal_list }
%struct.__pthread_internal_list = type { ptr, ptr }
%union.pthread_cond_t = type { %struct.__pthread_cond_s }
%struct.__pthread_cond_s = type { %union.__atomic_wide_counter, %union.__atomic_wide_counter, [2 x i32], [2 x i32], i32, i32, [2 x i32] }
%union.__atomic_wide_counter = type { i64 }
%class.GrowableArrayCHeap = type { %class.GrowableArrayWithAllocator }
%class.GrowableArrayWithAllocator = type { %class.GrowableArrayView }
%class.GrowableArrayView = type { %class.GrowableArrayBase, ptr }
%class.GrowableArrayBase = type { i32, i32 }
%class.ZRelocate = type { ptr, %class.ZRelocateQueue }
%class.GrowableArrayView.10 = type { %class.GrowableArrayBase, ptr }
%class.ZTask = type { ptr, %"class.ZTask::Task" }
%"class.ZTask::Task" = type { %class.WorkerTask.base, ptr }
%class.WorkerTask.base = type <{ ptr, ptr, i32 }>
%class.ZArrayIteratorImpl.12 = type { i64, i64, ptr }
%class.ZFlipAgePagesTask = type { %class.ZTask, %class.ZArrayIteratorImpl.12 }

@.str.34 = private unnamed_addr constant [18 x i8] c"ZPromotePagesTask\00", align 1
@_ZTV17ZFlipAgePagesTask = linkonce_odr hidden unnamed_addr constant { [3 x ptr] } { [3 x ptr] [ptr null, ptr null, ptr @_ZN17ZFlipAgePagesTask4workEv] }, comdat, align 8

; Function Attrs: mustprogress nounwind uwtable
define linkonce_odr hidden void @_ZN18ZArrayIteratorImplIP5ZPageLb1EEC2EPKS1_m(ptr noundef nonnull align 8 dereferenceable(24) %0, ptr noundef %1, i64 noundef %2) unnamed_addr #1 comdat align 2 {
  %4 = alloca ptr, align 8
  %5 = alloca ptr, align 8
  %6 = alloca i64, align 8
  store ptr %0, ptr %4, align 8
  store ptr %1, ptr %5, align 8
  store i64 %2, ptr %6, align 8
  %7 = load ptr, ptr %4, align 8
  %8 = getelementptr inbounds %class.ZArrayIteratorImpl.12, ptr %7, i32 0, i32 0
  store i64 0, ptr %8, align 8
  %9 = getelementptr inbounds %class.ZArrayIteratorImpl.12, ptr %7, i32 0, i32 1
  %10 = load i64, ptr %6, align 8
  store i64 %10, ptr %9, align 8
  %11 = getelementptr inbounds %class.ZArrayIteratorImpl.12, ptr %7, i32 0, i32 2
  %12 = load ptr, ptr %5, align 8
  store ptr %12, ptr %11, align 8
  ret void
}

; Function Attrs: mustprogress nounwind uwtable
define linkonce_odr hidden noundef i32 @_ZNK17GrowableArrayBase6lengthEv(ptr noundef nonnull align 4 dereferenceable(8) %0) #1 comdat align 2 {
  %2 = alloca ptr, align 8
  store ptr %0, ptr %2, align 8
  %3 = load ptr, ptr %2, align 8
  %4 = getelementptr inbounds %class.GrowableArrayBase, ptr %3, i32 0, i32 0
  %5 = load i32, ptr %4, align 4
  ret i32 %5
}

; Function Attrs: mustprogress nounwind uwtable
define linkonce_odr hidden noundef ptr @_ZNK17GrowableArrayViewIP5ZPageE6adr_atEi(ptr noundef nonnull align 8 dereferenceable(16) %0, i32 noundef %1) #1 comdat align 2 {
  %3 = alloca ptr, align 8
  %4 = alloca i32, align 4
  store ptr %0, ptr %3, align 8
  store i32 %1, ptr %4, align 4
  %5 = load ptr, ptr %3, align 8
  %6 = getelementptr inbounds %class.GrowableArrayView.10, ptr %5, i32 0, i32 1
  %7 = load ptr, ptr %6, align 8
  %8 = load i32, ptr %4, align 4
  %9 = sext i32 %8 to i64
  %10 = getelementptr inbounds ptr, ptr %7, i64 %9
  ret ptr %10
}

; Function Attrs: mustprogress nounwind uwtable
define linkonce_odr hidden noundef zeroext i1 @_ZNK17GrowableArrayBase8is_emptyEv(ptr noundef nonnull align 4 dereferenceable(8) %0) #1 comdat align 2 {
  %2 = alloca ptr, align 8
  store ptr %0, ptr %2, align 8
  %3 = load ptr, ptr %2, align 8
  %4 = getelementptr inbounds %class.GrowableArrayBase, ptr %3, i32 0, i32 0
  %5 = load i32, ptr %4, align 4
  %6 = icmp eq i32 %5, 0
  ret i1 %6
}

; Function Attrs: mustprogress nounwind uwtable
define linkonce_odr hidden void @_ZN18ZArrayIteratorImplIP5ZPageLb1EEC2EPK18GrowableArrayCHeapIS1_L8MEMFLAGS5EE(ptr noundef nonnull align 8 dereferenceable(24) %0, ptr noundef %1) unnamed_addr #1 comdat align 2 {
  %3 = alloca ptr, align 8
  %4 = alloca ptr, align 8
  store ptr %0, ptr %3, align 8
  store ptr %1, ptr %4, align 8
  %5 = load ptr, ptr %3, align 8
  %6 = load ptr, ptr %4, align 8
  %7 = call noundef zeroext i1 @_ZNK17GrowableArrayBase8is_emptyEv(ptr noundef nonnull align 4 dereferenceable(8) %6)
  br i1 %7, label %8, label %9

8:                                                ; preds = %2
  br label %12

9:                                                ; preds = %2
  %10 = load ptr, ptr %4, align 8
  %11 = call noundef ptr @_ZNK17GrowableArrayViewIP5ZPageE6adr_atEi(ptr noundef nonnull align 8 dereferenceable(16) %10, i32 noundef 0)
  br label %12

12:                                               ; preds = %9, %8
  %13 = phi ptr [ null, %8 ], [ %11, %9 ]
  %14 = load ptr, ptr %4, align 8
  %15 = call noundef i32 @_ZNK17GrowableArrayBase6lengthEv(ptr noundef nonnull align 4 dereferenceable(8) %14)
  %16 = sext i32 %15 to i64
  call void @_ZN18ZArrayIteratorImplIP5ZPageLb1EEC2EPKS1_m(ptr noundef nonnull align 8 dereferenceable(24) %5, ptr noundef %13, i64 noundef %16)
  ret void
}

; Function Attrs: mustprogress nounwind uwtable
define hidden noundef ptr @_ZNK9ZRelocate7workersEv(ptr noundef nonnull align 8 dereferenceable(128) %0) #1 align 2 {
  %2 = alloca ptr, align 8
  store ptr %0, ptr %2, align 8
  %3 = load ptr, ptr %2, align 8
  %4 = getelementptr inbounds %class.ZRelocate, ptr %3, i32 0, i32 0
  %5 = load ptr, ptr %4, align 8
  %6 = call noundef ptr @_ZN11ZGeneration7workersEv(ptr noundef nonnull align 64 dereferenceable(6592) %5)
  ret ptr %6
}

; Function Attrs: mustprogress nounwind uwtable
define linkonce_odr hidden void @_ZN17ZFlipAgePagesTaskC2EPK18GrowableArrayCHeapIP5ZPageL8MEMFLAGS5EE(ptr noundef nonnull align 8 dereferenceable(64) %0, ptr noundef %1) unnamed_addr #1 comdat align 2 {
  %3 = alloca ptr, align 8
  %4 = alloca ptr, align 8
  store ptr %0, ptr %3, align 8
  store ptr %1, ptr %4, align 8
  %5 = load ptr, ptr %3, align 8
  call void @_ZN5ZTaskC2EPKc(ptr noundef nonnull align 8 dereferenceable(40) %5, ptr noundef @.str.34)
  store ptr getelementptr inbounds inrange(-16, 8) ({ [3 x ptr] }, ptr @_ZTV17ZFlipAgePagesTask, i32 0, i32 0, i32 2), ptr %5, align 8
  %6 = getelementptr inbounds %class.ZFlipAgePagesTask, ptr %5, i32 0, i32 1
  %7 = load ptr, ptr %4, align 8
  call void @_ZN18ZArrayIteratorImplIP5ZPageLb1EEC2EPK18GrowableArrayCHeapIS1_L8MEMFLAGS5EE(ptr noundef nonnull align 8 dereferenceable(24) %6, ptr noundef %7)
  ret void
}

; Function Attrs: mustprogress nounwind uwtable
define hidden void @_ZN9ZRelocate14flip_age_pagesEPK18GrowableArrayCHeapIP5ZPageL8MEMFLAGS5EE(ptr noundef nonnull align 8 dereferenceable(128) %0, ptr noundef %1) #1 align 2 {
  %3 = alloca ptr, align 8
  %4 = alloca ptr, align 8
  %5 = alloca %class.ZFlipAgePagesTask, align 8
  store ptr %0, ptr %3, align 8
  store ptr %1, ptr %4, align 8
  %6 = load ptr, ptr %3, align 8
  %7 = load ptr, ptr %4, align 8
  call void @_ZN17ZFlipAgePagesTaskC2EPK18GrowableArrayCHeapIP5ZPageL8MEMFLAGS5EE(ptr noundef nonnull align 8 dereferenceable(64) %5, ptr noundef %7)
  %8 = call noundef ptr @_ZNK9ZRelocate7workersEv(ptr noundef nonnull align 8 dereferenceable(128) %6)
  call void @_ZN8ZWorkers3runEP5ZTask(ptr noundef nonnull align 8 dereferenceable(184) %8, ptr noundef %5)
  ret void
}