; Function Attrs: mustprogress nounwind uwtable
define hidden void @_ZN9ZRelocate14flip_age_pagesEPK18GrowableArrayCHeapIP5ZPageL8MEMFLAGS5EE(ptr nocapture noundef nonnull readonly align 8 dereferenceable(128) %0, ptr nocapture noundef readonly %1) local_unnamed_addr #1 align 2 {
  %3 = alloca %class.ZFlipAgePagesTask, align 8
  call void @_ZN5ZTaskC2EPKc(ptr noundef nonnull align 8 dereferenceable(40) %3, ptr noundef nonnull @.str.34) #14
  store ptr getelementptr inbounds inrange(-16, 8) (i8, ptr @_ZTV17ZFlipAgePagesTask, i64 16), ptr %3, align 8
  %4 = load i32, ptr %1, align 4
  %5 = icmp eq i32 %4, 0
  br i1 %5, label %_ZN17ZFlipAgePagesTaskC2EPK18GrowableArrayCHeapIP5ZPageL8MEMFLAGS5EE.exit, label %6

6:                                                ; preds = %2
  %7 = getelementptr inbounds i8, ptr %1, i64 8
  %8 = load ptr, ptr %7, align 8
  br label %_ZN17ZFlipAgePagesTaskC2EPK18GrowableArrayCHeapIP5ZPageL8MEMFLAGS5EE.exit

_ZN17ZFlipAgePagesTaskC2EPK18GrowableArrayCHeapIP5ZPageL8MEMFLAGS5EE.exit: ; preds = %2, %6
  %9 = phi ptr [ %8, %6 ], [ null, %2 ]
  %10 = getelementptr inbounds i8, ptr %3, i64 40
  %11 = sext i32 %4 to i64
  store i64 0, ptr %10, align 8
  %12 = getelementptr inbounds i8, ptr %3, i64 48
  store i64 %11, ptr %12, align 8
  %13 = getelementptr inbounds i8, ptr %3, i64 56
  store ptr %9, ptr %13, align 8
  %14 = load ptr, ptr %0, align 8
  %15 = call noundef ptr @_ZN11ZGeneration7workersEv(ptr noundef nonnull align 64 dereferenceable(6592) %14) #14
  call void @_ZN8ZWorkers3runEP5ZTask(ptr noundef nonnull align 8 dereferenceable(184) %15, ptr noundef nonnull %3) #14
  ret void
}